target datalayout = "e-m:e-p270:32:32-p271:32:32-p272:64:64-i64:64-i128:128-f80:128-n8:16:32:64-S128"
target triple = "x86_64-pc-linux-gnu"

%"class.cv::Size_" = type { i32, i32 }
%"class.cv::Point_.52" = type { i32, i32 }
%"struct.cv::detail::ProjectorBase" = type { float, [9 x float], [9 x float], [9 x float], [9 x float], [3 x float] }
%"class.cv::detail::RotationWarperBase" = type { %"class.cv::detail::RotationWarper", %"struct.cv::detail::PlaneProjector" }
%"class.cv::detail::RotationWarper" = type { ptr }
%"struct.cv::detail::PlaneProjector" = type { %"struct.cv::detail::ProjectorBase" }

; Function Attrs: inlinehint mustprogress nounwind uwtable
define linkonce_odr noundef nonnull align 4 dereferenceable(4) ptr @_ZSt3maxIfERKT_S2_S2_(ptr noundef nonnull align 4 dereferenceable(4) %0, ptr noundef nonnull align 4 dereferenceable(4) %1) #5 comdat {
  %3 = alloca ptr, align 8
  %4 = alloca ptr, align 8
  %5 = alloca ptr, align 8
  store ptr %0, ptr %4, align 8, !tbaa !32
  store ptr %1, ptr %5, align 8, !tbaa !32
  %6 = load ptr, ptr %4, align 8, !tbaa !32
  %7 = load float, ptr %6, align 4, !tbaa !10
  %8 = load ptr, ptr %5, align 8, !tbaa !32
  %9 = load float, ptr %8, align 4, !tbaa !10
  %10 = fcmp olt float %7, %9
  br i1 %10, label %11, label %13

11:                                               ; preds = %2
  %12 = load ptr, ptr %5, align 8, !tbaa !32
  store ptr %12, ptr %3, align 8
  br label %15

13:                                               ; preds = %2
  %14 = load ptr, ptr %4, align 8, !tbaa !32
  store ptr %14, ptr %3, align 8
  br label %15

15:                                               ; preds = %13, %11
  %16 = load ptr, ptr %3, align 8
  ret ptr %16
}

; Function Attrs: inlinehint mustprogress nounwind uwtable
define linkonce_odr noundef nonnull align 4 dereferenceable(4) ptr @_ZSt3minIfERKT_S2_S2_(ptr noundef nonnull align 4 dereferenceable(4) %0, ptr noundef nonnull align 4 dereferenceable(4) %1) #5 comdat {
  %3 = alloca ptr, align 8
  %4 = alloca ptr, align 8
  %5 = alloca ptr, align 8
  store ptr %0, ptr %4, align 8, !tbaa !32
  store ptr %1, ptr %5, align 8, !tbaa !32
  %6 = load ptr, ptr %5, align 8, !tbaa !32
  %7 = load float, ptr %6, align 4, !tbaa !10
  %8 = load ptr, ptr %4, align 8, !tbaa !32
  %9 = load float, ptr %8, align 4, !tbaa !10
  %10 = fcmp olt float %7, %9
  br i1 %10, label %11, label %13

11:                                               ; preds = %2
  %12 = load ptr, ptr %5, align 8, !tbaa !32
  store ptr %12, ptr %3, align 8
  br label %15

13:                                               ; preds = %2
  %14 = load ptr, ptr %4, align 8, !tbaa !32
  store ptr %14, ptr %3, align 8
  br label %15

15:                                               ; preds = %13, %11
  %16 = load ptr, ptr %3, align 8
  ret ptr %16
}

; Function Attrs: inlinehint mustprogress nounwind uwtable
define linkonce_odr hidden void @_ZN2cv6detail14PlaneProjector10mapForwardEffRfS2_(ptr noundef nonnull align 4 dereferenceable(160) %0, float noundef %1, float noundef %2, ptr noundef nonnull align 4 dereferenceable(4) %3, ptr noundef nonnull align 4 dereferenceable(4) %4) #5 comdat align 2 {
  %6 = alloca ptr, align 8
  %7 = alloca float, align 4
  %8 = alloca float, align 4
  %9 = alloca ptr, align 8
  %10 = alloca ptr, align 8
  %11 = alloca float, align 4
  %12 = alloca float, align 4
  %13 = alloca float, align 4
  store ptr %0, ptr %6, align 8, !tbaa !104
  store float %1, ptr %7, align 4, !tbaa !10
  store float %2, ptr %8, align 4, !tbaa !10
  store ptr %3, ptr %9, align 8, !tbaa !32
  store ptr %4, ptr %10, align 8, !tbaa !32
  %14 = load ptr, ptr %6, align 8
  call void @llvm.lifetime.start.p0(i64 4, ptr %11) #3
  %15 = getelementptr inbounds nuw %"struct.cv::detail::ProjectorBase", ptr %14, i32 0, i32 3
  %16 = getelementptr inbounds [9 x float], ptr %15, i64 0, i64 0
  %17 = load float, ptr %16, align 4, !tbaa !10
  %18 = load float, ptr %7, align 4, !tbaa !10
  %19 = getelementptr inbounds nuw %"struct.cv::detail::ProjectorBase", ptr %14, i32 0, i32 3
  %20 = getelementptr inbounds [9 x float], ptr %19, i64 0, i64 1
  %21 = load float, ptr %20, align 4, !tbaa !10
  %22 = load float, ptr %8, align 4, !tbaa !10
  %23 = fmul float %21, %22
  %24 = call float @llvm.fmuladd.f32(float %17, float %18, float %23)
  %25 = getelementptr inbounds nuw %"struct.cv::detail::ProjectorBase", ptr %14, i32 0, i32 3
  %26 = getelementptr inbounds [9 x float], ptr %25, i64 0, i64 2
  %27 = load float, ptr %26, align 4, !tbaa !10
  %28 = fadd float %24, %27
  store float %28, ptr %11, align 4, !tbaa !10
  call void @llvm.lifetime.start.p0(i64 4, ptr %12) #3
  %29 = getelementptr inbounds nuw %"struct.cv::detail::ProjectorBase", ptr %14, i32 0, i32 3
  %30 = getelementptr inbounds [9 x float], ptr %29, i64 0, i64 3
  %31 = load float, ptr %30, align 4, !tbaa !10
  %32 = load float, ptr %7, align 4, !tbaa !10
  %33 = getelementptr inbounds nuw %"struct.cv::detail::ProjectorBase", ptr %14, i32 0, i32 3
  %34 = getelementptr inbounds [9 x float], ptr %33, i64 0, i64 4
  %35 = load float, ptr %34, align 4, !tbaa !10
  %36 = load float, ptr %8, align 4, !tbaa !10
  %37 = fmul float %35, %36
  %38 = call float @llvm.fmuladd.f32(float %31, float %32, float %37)
  %39 = getelementptr inbounds nuw %"struct.cv::detail::ProjectorBase", ptr %14, i32 0, i32 3
  %40 = getelementptr inbounds [9 x float], ptr %39, i64 0, i64 5
  %41 = load float, ptr %40, align 4, !tbaa !10
  %42 = fadd float %38, %41
  store float %42, ptr %12, align 4, !tbaa !10
  call void @llvm.lifetime.start.p0(i64 4, ptr %13) #3
  %43 = getelementptr inbounds nuw %"struct.cv::detail::ProjectorBase", ptr %14, i32 0, i32 3
  %44 = getelementptr inbounds [9 x float], ptr %43, i64 0, i64 6
  %45 = load float, ptr %44, align 4, !tbaa !10
  %46 = load float, ptr %7, align 4, !tbaa !10
  %47 = getelementptr inbounds nuw %"struct.cv::detail::ProjectorBase", ptr %14, i32 0, i32 3
  %48 = getelementptr inbounds [9 x float], ptr %47, i64 0, i64 7
  %49 = load float, ptr %48, align 4, !tbaa !10
  %50 = load float, ptr %8, align 4, !tbaa !10
  %51 = fmul float %49, %50
  %52 = call float @llvm.fmuladd.f32(float %45, float %46, float %51)
  %53 = getelementptr inbounds nuw %"struct.cv::detail::ProjectorBase", ptr %14, i32 0, i32 3
  %54 = getelementptr inbounds [9 x float], ptr %53, i64 0, i64 8
  %55 = load float, ptr %54, align 4, !tbaa !10
  %56 = fadd float %52, %55
  store float %56, ptr %13, align 4, !tbaa !10
  %57 = getelementptr inbounds nuw %"struct.cv::detail::ProjectorBase", ptr %14, i32 0, i32 5
  %58 = getelementptr inbounds [3 x float], ptr %57, i64 0, i64 0
  %59 = load float, ptr %58, align 4, !tbaa !10
  %60 = load float, ptr %11, align 4, !tbaa !10
  %61 = load float, ptr %13, align 4, !tbaa !10
  %62 = fdiv float %60, %61
  %63 = getelementptr inbounds nuw %"struct.cv::detail::ProjectorBase", ptr %14, i32 0, i32 5
  %64 = getelementptr inbounds [3 x float], ptr %63, i64 0, i64 2
  %65 = load float, ptr %64, align 4, !tbaa !10
  %66 = fsub float 1.000000e+00, %65
  %67 = call float @llvm.fmuladd.f32(float %62, float %66, float %59)
  store float %67, ptr %11, align 4, !tbaa !10
  %68 = getelementptr inbounds nuw %"struct.cv::detail::ProjectorBase", ptr %14, i32 0, i32 5
  %69 = getelementptr inbounds [3 x float], ptr %68, i64 0, i64 1
  %70 = load float, ptr %69, align 4, !tbaa !10
  %71 = load float, ptr %12, align 4, !tbaa !10
  %72 = load float, ptr %13, align 4, !tbaa !10
  %73 = fdiv float %71, %72
  %74 = getelementptr inbounds nuw %"struct.cv::detail::ProjectorBase", ptr %14, i32 0, i32 5
  %75 = getelementptr inbounds [3 x float], ptr %74, i64 0, i64 2
  %76 = load float, ptr %75, align 4, !tbaa !10
  %77 = fsub float 1.000000e+00, %76
  %78 = call float @llvm.fmuladd.f32(float %73, float %77, float %70)
  store float %78, ptr %12, align 4, !tbaa !10
  %79 = getelementptr inbounds nuw %"struct.cv::detail::ProjectorBase", ptr %14, i32 0, i32 0
  %80 = load float, ptr %79, align 4, !tbaa !106
  %81 = load float, ptr %11, align 4, !tbaa !10
  %82 = fmul float %80, %81
  %83 = load ptr, ptr %9, align 8, !tbaa !32
  store float %82, ptr %83, align 4, !tbaa !10
  %84 = getelementptr inbounds nuw %"struct.cv::detail::ProjectorBase", ptr %14, i32 0, i32 0
  %85 = load float, ptr %84, align 4, !tbaa !106
  %86 = load float, ptr %12, align 4, !tbaa !10
  %87 = fmul float %85, %86
  %88 = load ptr, ptr %10, align 8, !tbaa !32
  store float %87, ptr %88, align 4, !tbaa !10
  call void @llvm.lifetime.end.p0(i64 4, ptr %13) #3
  call void @llvm.lifetime.end.p0(i64 4, ptr %12) #3
  call void @llvm.lifetime.end.p0(i64 4, ptr %11) #3
  ret void
}

; Function Attrs: mustprogress nounwind uwtable
define linkonce_odr hidden noundef float @_ZNSt14numeric_limitsIfE3maxEv() #8 comdat align 2 {
  ret float 0x47EFFFFFE0000000
}

; Function Attrs: mustprogress uwtable
define void @_ZN2cv6detail11PlaneWarper15detectResultRoiENS_5Size_IiEERNS_6Point_IiEES6_(ptr noundef nonnull align 8 dereferenceable(168) %0, i64 %1, ptr noundef nonnull align 4 dereferenceable(8) %2, ptr noundef nonnull align 4 dereferenceable(8) %3) unnamed_addr #4 align 2 {
  %5 = alloca %"class.cv::Size_", align 4
  %6 = alloca ptr, align 8
  %7 = alloca ptr, align 8
  %8 = alloca ptr, align 8
  %9 = alloca float, align 4
  %10 = alloca float, align 4
  %11 = alloca float, align 4
  %12 = alloca float, align 4
  %13 = alloca float, align 4
  %14 = alloca float, align 4
  store i64 %1, ptr %5, align 4
  store ptr %0, ptr %6, align 8, !tbaa !99
  store ptr %2, ptr %7, align 8, !tbaa !114
  store ptr %3, ptr %8, align 8, !tbaa !114
  %15 = load ptr, ptr %6, align 8
  call void @llvm.lifetime.start.p0(i64 4, ptr %9) #3
  %16 = call noundef float @_ZNSt14numeric_limitsIfE3maxEv() #3
  store float %16, ptr %9, align 4, !tbaa !10
  call void @llvm.lifetime.start.p0(i64 4, ptr %10) #3
  %17 = call noundef float @_ZNSt14numeric_limitsIfE3maxEv() #3
  store float %17, ptr %10, align 4, !tbaa !10
  call void @llvm.lifetime.start.p0(i64 4, ptr %11) #3
  %18 = call noundef float @_ZNSt14numeric_limitsIfE3maxEv() #3
  %19 = fneg float %18
  store float %19, ptr %11, align 4, !tbaa !10
  call void @llvm.lifetime.start.p0(i64 4, ptr %12) #3
  %20 = call noundef float @_ZNSt14numeric_limitsIfE3maxEv() #3
  %21 = fneg float %20
  store float %21, ptr %12, align 4, !tbaa !10
  call void @llvm.lifetime.start.p0(i64 4, ptr %13) #3
  call void @llvm.lifetime.start.p0(i64 4, ptr %14) #3
  %22 = getelementptr inbounds nuw %"class.cv::detail::RotationWarperBase", ptr %15, i32 0, i32 1
  call void @_ZN2cv6detail14PlaneProjector10mapForwardEffRfS2_(ptr noundef nonnull align 4 dereferenceable(160) %22, float noundef 0.000000e+00, float noundef 0.000000e+00, ptr noundef nonnull align 4 dereferenceable(4) %13, ptr noundef nonnull align 4 dereferenceable(4) %14)
  %23 = call noundef nonnull align 4 dereferenceable(4) ptr @_ZSt3minIfERKT_S2_S2_(ptr noundef nonnull align 4 dereferenceable(4) %9, ptr noundef nonnull align 4 dereferenceable(4) %13)
  %24 = load float, ptr %23, align 4, !tbaa !10
  store float %24, ptr %9, align 4, !tbaa !10
  %25 = call noundef nonnull align 4 dereferenceable(4) ptr @_ZSt3minIfERKT_S2_S2_(ptr noundef nonnull align 4 dereferenceable(4) %10, ptr noundef nonnull align 4 dereferenceable(4) %14)
  %26 = load float, ptr %25, align 4, !tbaa !10
  store float %26, ptr %10, align 4, !tbaa !10
  %27 = call noundef nonnull align 4 dereferenceable(4) ptr @_ZSt3maxIfERKT_S2_S2_(ptr noundef nonnull align 4 dereferenceable(4) %11, ptr noundef nonnull align 4 dereferenceable(4) %13)
  %28 = load float, ptr %27, align 4, !tbaa !10
  store float %28, ptr %11, align 4, !tbaa !10
  %29 = call noundef nonnull align 4 dereferenceable(4) ptr @_ZSt3maxIfERKT_S2_S2_(ptr noundef nonnull align 4 dereferenceable(4) %12, ptr noundef nonnull align 4 dereferenceable(4) %14)
  %30 = load float, ptr %29, align 4, !tbaa !10
  store float %30, ptr %12, align 4, !tbaa !10
  %31 = getelementptr inbounds nuw %"class.cv::detail::RotationWarperBase", ptr %15, i32 0, i32 1
  %32 = getelementptr inbounds nuw %"class.cv::Size_", ptr %5, i32 0, i32 1
  %33 = load i32, ptr %32, align 4, !tbaa !79
  %34 = sub nsw i32 %33, 1
  %35 = sitofp i32 %34 to float
  call void @_ZN2cv6detail14PlaneProjector10mapForwardEffRfS2_(ptr noundef nonnull align 4 dereferenceable(160) %31, float noundef 0.000000e+00, float noundef %35, ptr noundef nonnull align 4 dereferenceable(4) %13, ptr noundef nonnull align 4 dereferenceable(4) %14)
  %36 = call noundef nonnull align 4 dereferenceable(4) ptr @_ZSt3minIfERKT_S2_S2_(ptr noundef nonnull align 4 dereferenceable(4) %9, ptr noundef nonnull align 4 dereferenceable(4) %13)
  %37 = load float, ptr %36, align 4, !tbaa !10
  store float %37, ptr %9, align 4, !tbaa !10
  %38 = call noundef nonnull align 4 dereferenceable(4) ptr @_ZSt3minIfERKT_S2_S2_(ptr noundef nonnull align 4 dereferenceable(4) %10, ptr noundef nonnull align 4 dereferenceable(4) %14)
  %39 = load float, ptr %38, align 4, !tbaa !10
  store float %39, ptr %10, align 4, !tbaa !10
  %40 = call noundef nonnull align 4 dereferenceable(4) ptr @_ZSt3maxIfERKT_S2_S2_(ptr noundef nonnull align 4 dereferenceable(4) %11, ptr noundef nonnull align 4 dereferenceable(4) %13)
  %41 = load float, ptr %40, align 4, !tbaa !10
  store float %41, ptr %11, align 4, !tbaa !10
  %42 = call noundef nonnull align 4 dereferenceable(4) ptr @_ZSt3maxIfERKT_S2_S2_(ptr noundef nonnull align 4 dereferenceable(4) %12, ptr noundef nonnull align 4 dereferenceable(4) %14)
  %43 = load float, ptr %42, align 4, !tbaa !10
  store float %43, ptr %12, align 4, !tbaa !10
  %44 = getelementptr inbounds nuw %"class.cv::detail::RotationWarperBase", ptr %15, i32 0, i32 1
  %45 = getelementptr inbounds nuw %"class.cv::Size_", ptr %5, i32 0, i32 0
  %46 = load i32, ptr %45, align 4, !tbaa !78
  %47 = sub nsw i32 %46, 1
  %48 = sitofp i32 %47 to float
  call void @_ZN2cv6detail14PlaneProjector10mapForwardEffRfS2_(ptr noundef nonnull align 4 dereferenceable(160) %44, float noundef %48, float noundef 0.000000e+00, ptr noundef nonnull align 4 dereferenceable(4) %13, ptr noundef nonnull align 4 dereferenceable(4) %14)
  %49 = call noundef nonnull align 4 dereferenceable(4) ptr @_ZSt3minIfERKT_S2_S2_(ptr noundef nonnull align 4 dereferenceable(4) %9, ptr noundef nonnull align 4 dereferenceable(4) %13)
  %50 = load float, ptr %49, align 4, !tbaa !10
  store float %50, ptr %9, align 4, !tbaa !10
  %51 = call noundef nonnull align 4 dereferenceable(4) ptr @_ZSt3minIfERKT_S2_S2_(ptr noundef nonnull align 4 dereferenceable(4) %10, ptr noundef nonnull align 4 dereferenceable(4) %14)
  %52 = load float, ptr %51, align 4, !tbaa !10
  store float %52, ptr %10, align 4, !tbaa !10
  %53 = call noundef nonnull align 4 dereferenceable(4) ptr @_ZSt3maxIfERKT_S2_S2_(ptr noundef nonnull align 4 dereferenceable(4) %11, ptr noundef nonnull align 4 dereferenceable(4) %13)
  %54 = load float, ptr %53, align 4, !tbaa !10
  store float %54, ptr %11, align 4, !tbaa !10
  %55 = call noundef nonnull align 4 dereferenceable(4) ptr @_ZSt3maxIfERKT_S2_S2_(ptr noundef nonnull align 4 dereferenceable(4) %12, ptr noundef nonnull align 4 dereferenceable(4) %14)
  %56 = load float, ptr %55, align 4, !tbaa !10
  store float %56, ptr %12, align 4, !tbaa !10
  %57 = getelementptr inbounds nuw %"class.cv::detail::RotationWarperBase", ptr %15, i32 0, i32 1
  %58 = getelementptr inbounds nuw %"class.cv::Size_", ptr %5, i32 0, i32 0
  %59 = load i32, ptr %58, align 4, !tbaa !78
  %60 = sub nsw i32 %59, 1
  %61 = sitofp i32 %60 to float
  %62 = getelementptr inbounds nuw %"class.cv::Size_", ptr %5, i32 0, i32 1
  %63 = load i32, ptr %62, align 4, !tbaa !79
  %64 = sub nsw i32 %63, 1
  %65 = sitofp i32 %64 to float
  call void @_ZN2cv6detail14PlaneProjector10mapForwardEffRfS2_(ptr noundef nonnull align 4 dereferenceable(160) %57, float noundef %61, float noundef %65, ptr noundef nonnull align 4 dereferenceable(4) %13, ptr noundef nonnull align 4 dereferenceable(4) %14)
  %66 = call noundef nonnull align 4 dereferenceable(4) ptr @_ZSt3minIfERKT_S2_S2_(ptr noundef nonnull align 4 dereferenceable(4) %9, ptr noundef nonnull align 4 dereferenceable(4) %13)
  %67 = load float, ptr %66, align 4, !tbaa !10
  store float %67, ptr %9, align 4, !tbaa !10
  %68 = call noundef nonnull align 4 dereferenceable(4) ptr @_ZSt3minIfERKT_S2_S2_(ptr noundef nonnull align 4 dereferenceable(4) %10, ptr noundef nonnull align 4 dereferenceable(4) %14)
  %69 = load float, ptr %68, align 4, !tbaa !10
  store float %69, ptr %10, align 4, !tbaa !10
  %70 = call noundef nonnull align 4 dereferenceable(4) ptr @_ZSt3maxIfERKT_S2_S2_(ptr noundef nonnull align 4 dereferenceable(4) %11, ptr noundef nonnull align 4 dereferenceable(4) %13)
  %71 = load float, ptr %70, align 4, !tbaa !10
  store float %71, ptr %11, align 4, !tbaa !10
  %72 = call noundef nonnull align 4 dereferenceable(4) ptr @_ZSt3maxIfERKT_S2_S2_(ptr noundef nonnull align 4 dereferenceable(4) %12, ptr noundef nonnull align 4 dereferenceable(4) %14)
  %73 = load float, ptr %72, align 4, !tbaa !10
  store float %73, ptr %12, align 4, !tbaa !10
  %74 = load float, ptr %9, align 4, !tbaa !10
  %75 = fptosi float %74 to i32
  %76 = load ptr, ptr %7, align 8, !tbaa !114
  %77 = getelementptr inbounds nuw %"class.cv::Point_.52", ptr %76, i32 0, i32 0
  store i32 %75, ptr %77, align 4, !tbaa !108
  %78 = load float, ptr %10, align 4, !tbaa !10
  %79 = fptosi float %78 to i32
  %80 = load ptr, ptr %7, align 8, !tbaa !114
  %81 = getelementptr inbounds nuw %"class.cv::Point_.52", ptr %80, i32 0, i32 1
  store i32 %79, ptr %81, align 4, !tbaa !110
  %82 = load float, ptr %11, align 4, !tbaa !10
  %83 = fptosi float %82 to i32
  %84 = load ptr, ptr %8, align 8, !tbaa !114
  %85 = getelementptr inbounds nuw %"class.cv::Point_.52", ptr %84, i32 0, i32 0
  store i32 %83, ptr %85, align 4, !tbaa !108
  %86 = load float, ptr %12, align 4, !tbaa !10
  %87 = fptosi float %86 to i32
  %88 = load ptr, ptr %8, align 8, !tbaa !114
  %89 = getelementptr inbounds nuw %"class.cv::Point_.52", ptr %88, i32 0, i32 1
  store i32 %87, ptr %89, align 4, !tbaa !110
  call void @llvm.lifetime.end.p0(i64 4, ptr %14) #3
  call void @llvm.lifetime.end.p0(i64 4, ptr %13) #3
  call void @llvm.lifetime.end.p0(i64 4, ptr %12) #3
  call void @llvm.lifetime.end.p0(i64 4, ptr %11) #3
  call void @llvm.lifetime.end.p0(i64 4, ptr %10) #3
  call void @llvm.lifetime.end.p0(i64 4, ptr %9) #3
  ret void
}