; Function Attrs: mustprogress nofree norecurse nosync nounwind willreturn memory(argmem: readwrite) uwtable
define void @_ZN2cv6detail11PlaneWarper15detectResultRoiENS_5Size_IiEERNS_6Point_IiEES6_(ptr noundef nonnull readonly align 8 captures(none) dereferenceable(168) %0, i64 %1, ptr noundef nonnull writeonly align 4 captures(none) dereferenceable(8) initializes((0, 8)) %2, ptr noundef nonnull writeonly align 4 captures(none) dereferenceable(8) initializes((0, 8)) %3) unnamed_addr #10 align 2 {
  %.sroa.0.0.extract.trunc = trunc i64 %1 to i32
  %.sroa.3.0.extract.shift = lshr i64 %1, 32
  %.sroa.3.0.extract.trunc = trunc nuw i64 %.sroa.3.0.extract.shift to i32
  %5 = getelementptr inbounds nuw i8, ptr %0, i64 8
  %6 = getelementptr inbounds nuw i8, ptr %0, i64 84
  %7 = load float, ptr %6, align 4, !tbaa !180
  %8 = getelementptr inbounds nuw i8, ptr %0, i64 88
  %9 = load float, ptr %8, align 8, !tbaa !180
  %10 = fmul float %9, 0.000000e+00
  %11 = tail call float @llvm.fmuladd.f32(float %7, float 0.000000e+00, float %10)
  %12 = getelementptr inbounds nuw i8, ptr %0, i64 92
  %13 = load float, ptr %12, align 4, !tbaa !180
  %14 = fadd float %13, %11
  %15 = getelementptr inbounds nuw i8, ptr %0, i64 96
  %16 = load float, ptr %15, align 8, !tbaa !180
  %17 = getelementptr inbounds nuw i8, ptr %0, i64 100
  %18 = load float, ptr %17, align 4, !tbaa !180
  %19 = fmul float %18, 0.000000e+00
  %20 = tail call float @llvm.fmuladd.f32(float %16, float 0.000000e+00, float %19)
  %21 = getelementptr inbounds nuw i8, ptr %0, i64 104
  %22 = load float, ptr %21, align 8, !tbaa !180
  %23 = fadd float %22, %20
  %24 = getelementptr inbounds nuw i8, ptr %0, i64 108
  %25 = load float, ptr %24, align 4, !tbaa !180
  %26 = getelementptr inbounds nuw i8, ptr %0, i64 112
  %27 = load float, ptr %26, align 8, !tbaa !180
  %28 = fmul float %27, 0.000000e+00
  %29 = tail call float @llvm.fmuladd.f32(float %25, float 0.000000e+00, float %28)
  %30 = getelementptr inbounds nuw i8, ptr %0, i64 116
  %31 = load float, ptr %30, align 4, !tbaa !180
  %32 = fadd float %31, %29
  %33 = getelementptr inbounds nuw i8, ptr %0, i64 156
  %34 = load float, ptr %33, align 4, !tbaa !180
  %35 = fdiv float %14, %32
  %36 = getelementptr inbounds nuw i8, ptr %0, i64 164
  %37 = load float, ptr %36, align 4, !tbaa !180
  %38 = fsub float 1.000000e+00, %37
  %39 = tail call float @llvm.fmuladd.f32(float %35, float %38, float %34)
  %40 = getelementptr inbounds nuw i8, ptr %0, i64 160
  %41 = load float, ptr %40, align 8, !tbaa !180
  %42 = fdiv float %23, %32
  %43 = tail call float @llvm.fmuladd.f32(float %42, float %38, float %41)
  %44 = load float, ptr %5, align 8, !tbaa !201
  %45 = fmul float %44, %39
  %46 = fmul float %43, %44
  %47 = fcmp olt float %45, 0x47EFFFFFE0000000
  %.sroa.speculated79 = select i1 %47, float %45, float 0x47EFFFFFE0000000
  %48 = fcmp olt float %46, 0x47EFFFFFE0000000
  %.sroa.speculated49 = select i1 %48, float %46, float 0x47EFFFFFE0000000
  %49 = fcmp ogt float %45, 0xC7EFFFFFE0000000
  %.sroa.speculated76 = select i1 %49, float %45, float 0xC7EFFFFFE0000000
  %50 = fcmp ogt float %46, 0xC7EFFFFFE0000000
  %.sroa.speculated46 = select i1 %50, float %46, float 0xC7EFFFFFE0000000
  %51 = add nsw i32 %.sroa.3.0.extract.trunc, -1
  %52 = sitofp i32 %51 to float
  %53 = fmul float %9, %52
  %54 = tail call float @llvm.fmuladd.f32(float %7, float 0.000000e+00, float %53)
  %55 = fadd float %13, %54
  %56 = fmul float %18, %52
  %57 = tail call float @llvm.fmuladd.f32(float %16, float 0.000000e+00, float %56)
  %58 = fadd float %22, %57
  %59 = fmul float %27, %52
  %60 = tail call float @llvm.fmuladd.f32(float %25, float 0.000000e+00, float %59)
  %61 = fadd float %31, %60
  %62 = fdiv float %55, %61
  %63 = tail call float @llvm.fmuladd.f32(float %62, float %38, float %34)
  %64 = fdiv float %58, %61
  %65 = tail call float @llvm.fmuladd.f32(float %64, float %38, float %41)
  %66 = fmul float %44, %63
  %67 = fmul float %65, %44
  %68 = fcmp olt float %66, %.sroa.speculated79
  %.sroa.speculated73 = select i1 %68, float %66, float %.sroa.speculated79
  %69 = fcmp olt float %67, %.sroa.speculated49
  %.sroa.speculated43 = select i1 %69, float %67, float %.sroa.speculated49
  %70 = fcmp olt float %.sroa.speculated76, %66
  %.sroa.speculated70 = select i1 %70, float %66, float %.sroa.speculated76
  %71 = fcmp olt float %.sroa.speculated46, %67
  %.sroa.speculated40 = select i1 %71, float %67, float %.sroa.speculated46
  %72 = add nsw i32 %.sroa.0.0.extract.trunc, -1
  %73 = sitofp i32 %72 to float
  %74 = tail call float @llvm.fmuladd.f32(float %7, float %73, float %10)
  %75 = fadd float %13, %74
  %76 = tail call float @llvm.fmuladd.f32(float %16, float %73, float %19)
  %77 = fadd float %22, %76
  %78 = tail call float @llvm.fmuladd.f32(float %25, float %73, float %28)
  %79 = fadd float %31, %78
  %80 = fdiv float %75, %79
  %81 = tail call float @llvm.fmuladd.f32(float %80, float %38, float %34)
  %82 = fdiv float %77, %79
  %83 = tail call float @llvm.fmuladd.f32(float %82, float %38, float %41)
  %84 = fmul float %44, %81
  %85 = fmul float %83, %44
  %86 = fcmp olt float %84, %.sroa.speculated73
  %.sroa.speculated67 = select i1 %86, float %84, float %.sroa.speculated73
  %87 = fcmp olt float %85, %.sroa.speculated43
  %.sroa.speculated37 = select i1 %87, float %85, float %.sroa.speculated43
  %88 = fcmp olt float %.sroa.speculated70, %84
  %.sroa.speculated64 = select i1 %88, float %84, float %.sroa.speculated70
  %89 = fcmp olt float %.sroa.speculated40, %85
  %.sroa.speculated34 = select i1 %89, float %85, float %.sroa.speculated40
  %90 = tail call float @llvm.fmuladd.f32(float %7, float %73, float %53)
  %91 = fadd float %13, %90
  %92 = tail call float @llvm.fmuladd.f32(float %16, float %73, float %56)
  %93 = fadd float %22, %92
  %94 = tail call float @llvm.fmuladd.f32(float %25, float %73, float %59)
  %95 = fadd float %31, %94
  %96 = fdiv float %91, %95
  %97 = tail call float @llvm.fmuladd.f32(float %96, float %38, float %34)
  %98 = fdiv float %93, %95
  %99 = tail call float @llvm.fmuladd.f32(float %98, float %38, float %41)
  %100 = fmul float %44, %97
  %101 = fmul float %99, %44
  %102 = fcmp olt float %100, %.sroa.speculated67
  %.sroa.speculated61 = select i1 %102, float %100, float %.sroa.speculated67
  %103 = fcmp olt float %101, %.sroa.speculated37
  %.sroa.speculated31 = select i1 %103, float %101, float %.sroa.speculated37
  %104 = fcmp olt float %.sroa.speculated64, %100
  %.sroa.speculated58 = select i1 %104, float %100, float %.sroa.speculated64
  %105 = fcmp olt float %.sroa.speculated34, %101
  %.sroa.speculated = select i1 %105, float %101, float %.sroa.speculated34
  %106 = fptosi float %.sroa.speculated61 to i32
  store i32 %106, ptr %2, align 4, !tbaa !206
  %107 = fptosi float %.sroa.speculated31 to i32
  %108 = getelementptr inbounds nuw i8, ptr %2, i64 4
  store i32 %107, ptr %108, align 4, !tbaa !208
  %109 = fptosi float %.sroa.speculated58 to i32
  store i32 %109, ptr %3, align 4, !tbaa !206
  %110 = fptosi float %.sroa.speculated to i32
  %111 = getelementptr inbounds nuw i8, ptr %3, i64 4
  store i32 %110, ptr %111, align 4, !tbaa !208
  ret void
}